target datalayout = "e-m:e-p270:32:32-p271:32:32-p272:64:64-i64:64-i128:128-f80:128-n8:16:32:64-S128"
target triple = "x86_64-pc-linux-gnu"

%struct.AVChannelLayout = type { i32, i32, %union.anon, ptr }
%union.anon = type { i64 }
%struct.AVFormatContext = type { ptr, ptr, ptr, ptr, ptr, i32, i32, ptr, i32, ptr, i32, ptr, ptr, i64, i64, i64, i32, i32, i32, i64, i64, ptr, i32, i32, ptr, i32, i32, i32, i32, ptr, i64, i32, i32, %struct.AVIOInterruptCB, i32, i32, i32, i32, i64, i32, i32, i32, i32, i32, i32, i32, i32, i32, i32, i32, i32, i64, i32, i32, i32, i32, i32, ptr, ptr, ptr, ptr, i32, ptr, ptr, ptr, ptr, i32, ptr, ptr, i64, ptr, ptr, ptr, i64 }
%struct.AVIOInterruptCB = type { ptr, ptr }
%struct.AVStream = type { ptr, i32, i32, ptr, ptr, %struct.AVRational, i64, i64, i64, i32, i32, %struct.AVRational, ptr, %struct.AVRational, %struct.AVPacket, i32, %struct.AVRational, i32 }
%struct.AVPacket = type { ptr, i64, i64, ptr, i32, i32, i32, ptr, i32, i64, i64, ptr, ptr, %struct.AVRational }
%struct.AVRational = type { i32, i32 }
%struct.AVCodecParameters = type { i32, i32, i32, ptr, i32, ptr, i32, i32, i64, i32, i32, i32, i32, i32, i32, %struct.AVRational, %struct.AVRational, i32, i32, i32, i32, i32, i32, i32, %struct.AVChannelLayout, i32, i32, i32, i32, i32, i32 }

@mode20_header = internal constant [10 x i8] c"#!iLBC20\0A\00", align 1
@mode30_header = internal constant [10 x i8] c"#!iLBC30\0A\00", align 1
@.str.4 = private unnamed_addr constant [31 x i8] c"Unrecognized iLBC file header\0A\00", align 1

; Function Attrs: nounwind uwtable
define internal i32 @ilbc_read_header(ptr noundef %0) #0 {
  %2 = alloca i32, align 4
  %3 = alloca ptr, align 8
  %4 = alloca ptr, align 8
  %5 = alloca ptr, align 8
  %6 = alloca [9 x i8], align 1
  %7 = alloca i32, align 4
  %8 = alloca i32, align 4
  %9 = alloca %struct.AVChannelLayout, align 8
  store ptr %0, ptr %3, align 8, !tbaa !13
  call void @llvm.lifetime.start.p0(i64 8, ptr %4) #6
  %10 = load ptr, ptr %3, align 8, !tbaa !13
  %11 = getelementptr inbounds nuw %struct.AVFormatContext, ptr %10, i32 0, i32 4
  %12 = load ptr, ptr %11, align 8, !tbaa !15
  store ptr %12, ptr %4, align 8, !tbaa !30
  call void @llvm.lifetime.start.p0(i64 8, ptr %5) #6
  call void @llvm.lifetime.start.p0(i64 9, ptr %6) #6
  call void @llvm.lifetime.start.p0(i64 4, ptr %7) #6
  %13 = load ptr, ptr %4, align 8, !tbaa !30
  %14 = getelementptr inbounds [9 x i8], ptr %6, i64 0, i64 0
  %15 = call i32 @ffio_read_size(ptr noundef %13, ptr noundef %14, i32 noundef 9)
  store i32 %15, ptr %7, align 4, !tbaa !31
  %16 = load i32, ptr %7, align 4, !tbaa !31
  %17 = icmp slt i32 %16, 0
  br i1 %17, label %18, label %20

18:                                               ; preds = %1
  %19 = load i32, ptr %7, align 4, !tbaa !31
  store i32 %19, ptr %2, align 4
  store i32 1, ptr %8, align 4
  br label %84

20:                                               ; preds = %1
  %21 = load ptr, ptr %3, align 8, !tbaa !13
  %22 = call ptr @avformat_new_stream(ptr noundef %21, ptr noundef null)
  store ptr %22, ptr %5, align 8, !tbaa !32
  %23 = load ptr, ptr %5, align 8, !tbaa !32
  %24 = icmp ne ptr %23, null
  br i1 %24, label %26, label %25

25:                                               ; preds = %20
  store i32 -12, ptr %2, align 4
  store i32 1, ptr %8, align 4
  br label %84

26:                                               ; preds = %20
  %27 = load ptr, ptr %5, align 8, !tbaa !32
  %28 = getelementptr inbounds nuw %struct.AVStream, ptr %27, i32 0, i32 3
  %29 = load ptr, ptr %28, align 8, !tbaa !34
  %30 = getelementptr inbounds nuw %struct.AVCodecParameters, ptr %29, i32 0, i32 1
  store i32 86075, ptr %30, align 4, !tbaa !41
  %31 = load ptr, ptr %5, align 8, !tbaa !32
  %32 = getelementptr inbounds nuw %struct.AVStream, ptr %31, i32 0, i32 3
  %33 = load ptr, ptr %32, align 8, !tbaa !34
  %34 = getelementptr inbounds nuw %struct.AVCodecParameters, ptr %33, i32 0, i32 25
  store i32 8000, ptr %34, align 8, !tbaa !44
  %35 = load ptr, ptr %5, align 8, !tbaa !32
  %36 = getelementptr inbounds nuw %struct.AVStream, ptr %35, i32 0, i32 3
  %37 = load ptr, ptr %36, align 8, !tbaa !34
  %38 = getelementptr inbounds nuw %struct.AVCodecParameters, ptr %37, i32 0, i32 24
  %39 = getelementptr inbounds nuw %struct.AVChannelLayout, ptr %9, i32 0, i32 0
  store i32 1, ptr %39, align 8, !tbaa !45
  %40 = getelementptr inbounds nuw %struct.AVChannelLayout, ptr %9, i32 0, i32 1
  store i32 1, ptr %40, align 4, !tbaa !46
  %41 = getelementptr inbounds nuw %struct.AVChannelLayout, ptr %9, i32 0, i32 2
  store i64 4, ptr %41, align 8, !tbaa !47
  %42 = getelementptr inbounds nuw %struct.AVChannelLayout, ptr %9, i32 0, i32 3
  store ptr null, ptr %42, align 8, !tbaa !48
  call void @llvm.memcpy.p0.p0.i64(ptr align 8 %38, ptr align 8 %9, i64 24, i1 false), !tbaa.struct !49
  %43 = load ptr, ptr %5, align 8, !tbaa !32
  %44 = getelementptr inbounds nuw %struct.AVStream, ptr %43, i32 0, i32 3
  %45 = load ptr, ptr %44, align 8, !tbaa !34
  %46 = getelementptr inbounds nuw %struct.AVCodecParameters, ptr %45, i32 0, i32 0
  store i32 1, ptr %46, align 8, !tbaa !51
  %47 = load ptr, ptr %5, align 8, !tbaa !32
  %48 = getelementptr inbounds nuw %struct.AVStream, ptr %47, i32 0, i32 6
  store i64 0, ptr %48, align 8, !tbaa !52
  %49 = load ptr, ptr %5, align 8, !tbaa !32
  %50 = load ptr, ptr %5, align 8, !tbaa !32
  %51 = getelementptr inbounds nuw %struct.AVStream, ptr %50, i32 0, i32 3
  %52 = load ptr, ptr %51, align 8, !tbaa !34
  %53 = getelementptr inbounds nuw %struct.AVCodecParameters, ptr %52, i32 0, i32 25
  %54 = load i32, ptr %53, align 8, !tbaa !44
  call void @avpriv_set_pts_info(ptr noundef %49, i32 noundef 64, i32 noundef 1, i32 noundef %54)
  %55 = getelementptr inbounds [9 x i8], ptr %6, i64 0, i64 0
  %56 = call i32 @memcmp(ptr noundef %55, ptr noundef @mode20_header, i64 noundef 9) #5
  %57 = icmp ne i32 %56, 0
  br i1 %57, label %67, label %58

58:                                               ; preds = %26
  %59 = load ptr, ptr %5, align 8, !tbaa !32
  %60 = getelementptr inbounds nuw %struct.AVStream, ptr %59, i32 0, i32 3
  %61 = load ptr, ptr %60, align 8, !tbaa !34
  %62 = getelementptr inbounds nuw %struct.AVCodecParameters, ptr %61, i32 0, i32 26
  store i32 38, ptr %62, align 4, !tbaa !53
  %63 = load ptr, ptr %5, align 8, !tbaa !32
  %64 = getelementptr inbounds nuw %struct.AVStream, ptr %63, i32 0, i32 3
  %65 = load ptr, ptr %64, align 8, !tbaa !34
  %66 = getelementptr inbounds nuw %struct.AVCodecParameters, ptr %65, i32 0, i32 8
  store i64 15200, ptr %66, align 8, !tbaa !54
  br label %83

67:                                               ; preds = %26
  %68 = getelementptr inbounds [9 x i8], ptr %6, i64 0, i64 0
  %69 = call i32 @memcmp(ptr noundef %68, ptr noundef @mode30_header, i64 noundef 9) #5
  %70 = icmp ne i32 %69, 0
  br i1 %70, label %80, label %71

71:                                               ; preds = %67
  %72 = load ptr, ptr %5, align 8, !tbaa !32
  %73 = getelementptr inbounds nuw %struct.AVStream, ptr %72, i32 0, i32 3
  %74 = load ptr, ptr %73, align 8, !tbaa !34
  %75 = getelementptr inbounds nuw %struct.AVCodecParameters, ptr %74, i32 0, i32 26
  store i32 50, ptr %75, align 4, !tbaa !53
  %76 = load ptr, ptr %5, align 8, !tbaa !32
  %77 = getelementptr inbounds nuw %struct.AVStream, ptr %76, i32 0, i32 3
  %78 = load ptr, ptr %77, align 8, !tbaa !34
  %79 = getelementptr inbounds nuw %struct.AVCodecParameters, ptr %78, i32 0, i32 8
  store i64 13333, ptr %79, align 8, !tbaa !54
  br label %82

80:                                               ; preds = %67
  %81 = load ptr, ptr %3, align 8, !tbaa !13
  call void (ptr, i32, ptr, ...) @av_log(ptr noundef %81, i32 noundef 16, ptr noundef @.str.4)
  store i32 -1094995529, ptr %2, align 4
  store i32 1, ptr %8, align 4
  br label %84

82:                                               ; preds = %71
  br label %83

83:                                               ; preds = %82, %58
  store i32 0, ptr %2, align 4
  store i32 1, ptr %8, align 4
  br label %84

84:                                               ; preds = %83, %80, %25, %18
  call void @llvm.lifetime.end.p0(i64 4, ptr %7) #6
  call void @llvm.lifetime.end.p0(i64 9, ptr %6) #6
  call void @llvm.lifetime.end.p0(i64 8, ptr %5) #6
  call void @llvm.lifetime.end.p0(i64 8, ptr %4) #6
  %85 = load i32, ptr %2, align 4
  ret i32 %85
}