; Function Attrs: nounwind uwtable
define internal range(i32 -2147483648, 1) i32 @ilbc_read_header(ptr noundef %0) #1 {
  %2 = alloca [9 x i8], align 1
  %3 = getelementptr inbounds nuw i8, ptr %0, i64 32
  %4 = load ptr, ptr %3, align 8, !tbaa !11
  call void @llvm.lifetime.start.p0(i64 9, ptr nonnull %2) #5
  %5 = call i32 @ffio_read_size(ptr noundef %4, ptr noundef nonnull %2, i32 noundef 9) #5
  %6 = icmp slt i32 %5, 0
  br i1 %6, label %29, label %7

7:                                                ; preds = %1
  %8 = call ptr @avformat_new_stream(ptr noundef nonnull %0, ptr noundef null) #5
  %.not = icmp eq ptr %8, null
  br i1 %.not, label %29, label %9

9:                                                ; preds = %7
  %10 = getelementptr inbounds nuw i8, ptr %8, i64 16
  %11 = load ptr, ptr %10, align 8, !tbaa !26
  %12 = getelementptr inbounds nuw i8, ptr %11, i64 4
  store i32 86075, ptr %12, align 4, !tbaa !33
  %13 = getelementptr inbounds nuw i8, ptr %11, i64 152
  store i32 8000, ptr %13, align 8, !tbaa !36
  %14 = getelementptr inbounds nuw i8, ptr %11, i64 128
  store i32 1, ptr %14, align 8, !tbaa !37
  %.sroa.2.0..sroa_idx = getelementptr inbounds nuw i8, ptr %11, i64 132
  store i32 1, ptr %.sroa.2.0..sroa_idx, align 4, !tbaa !37
  %.sroa.3.0..sroa_idx = getelementptr inbounds nuw i8, ptr %11, i64 136
  store i64 4, ptr %.sroa.3.0..sroa_idx, align 8, !tbaa !38
  %.sroa.4.0..sroa_idx = getelementptr inbounds nuw i8, ptr %11, i64 144
  store ptr null, ptr %.sroa.4.0..sroa_idx, align 8, !tbaa !39
  %15 = load ptr, ptr %10, align 8, !tbaa !26
  store i32 1, ptr %15, align 8, !tbaa !40
  %16 = getelementptr inbounds nuw i8, ptr %8, i64 40
  store i64 0, ptr %16, align 8, !tbaa !41
  %17 = getelementptr inbounds nuw i8, ptr %15, i64 152
  %18 = load i32, ptr %17, align 8, !tbaa !36
  call void @avpriv_set_pts_info(ptr noundef nonnull %8, i32 noundef 64, i32 noundef 1, i32 noundef %18) #5
  %bcmp = call i32 @bcmp(ptr noundef nonnull dereferenceable(9) %2, ptr noundef nonnull dereferenceable(9) @mode20_header, i64 9)
  %.not20 = icmp eq i32 %bcmp, 0
  br i1 %.not20, label %19, label %23

19:                                               ; preds = %9
  %20 = load ptr, ptr %10, align 8, !tbaa !26
  %21 = getelementptr inbounds nuw i8, ptr %20, i64 156
  store i32 38, ptr %21, align 4, !tbaa !42
  %22 = getelementptr inbounds nuw i8, ptr %20, i64 48
  store i64 15200, ptr %22, align 8, !tbaa !43
  br label %29

23:                                               ; preds = %9
  %bcmp21 = call i32 @bcmp(ptr noundef nonnull dereferenceable(9) %2, ptr noundef nonnull dereferenceable(9) @mode30_header, i64 9)
  %.not22 = icmp eq i32 %bcmp21, 0
  br i1 %.not22, label %24, label %28

24:                                               ; preds = %23
  %25 = load ptr, ptr %10, align 8, !tbaa !26
  %26 = getelementptr inbounds nuw i8, ptr %25, i64 156
  store i32 50, ptr %26, align 4, !tbaa !42
  %27 = getelementptr inbounds nuw i8, ptr %25, i64 48
  store i64 13333, ptr %27, align 8, !tbaa !43
  br label %29

28:                                               ; preds = %23
  call void (ptr, i32, ptr, ...) @av_log(ptr noundef nonnull %0, i32 noundef 16, ptr noundef nonnull @.str.4) #5
  br label %29

29:                                               ; preds = %19, %24, %7, %1, %28
  %.0 = phi i32 [ -1094995529, %28 ], [ %5, %1 ], [ -12, %7 ], [ 0, %24 ], [ 0, %19 ]
  call void @llvm.lifetime.end.p0(i64 9, ptr nonnull %2) #5
  ret i32 %.0
}